target datalayout = "e-m:e-p270:32:32-p271:32:32-p272:64:64-i64:64-i128:128-f80:128-n8:16:32:64-S128"
target triple = "x86_64-pc-linux-gnu"

%"class.std::__cxx11::basic_string" = type { %"struct.std::__cxx11::basic_string<char>::_Alloc_hider", i64, %union.anon }
%"struct.std::__cxx11::basic_string<char>::_Alloc_hider" = type { ptr }
%union.anon = type { i64, [8 x i8] }
%struct.stat = type { i64, i64, i64, i32, i32, i32, i32, i64, i64, i64, i64, %struct.timespec, %struct.timespec, %struct.timespec, [3 x i64] }
%struct.timespec = type { i64, i64 }
%"class.std::basic_ifstream" = type { %"class.std::basic_istream.base", %"class.std::basic_filebuf", %"class.std::basic_ios" }
%"class.std::basic_istream.base" = type { ptr, i64 }
%"class.std::basic_filebuf" = type { %"class.std::basic_streambuf", %union.pthread_mutex_t, %"class.std::__basic_file", i32, %struct.__mbstate_t, %struct.__mbstate_t, %struct.__mbstate_t, ptr, i64, i8, i8, i8, i8, ptr, ptr, i8, ptr, ptr, i64, ptr, ptr }
%"class.std::basic_streambuf" = type { ptr, ptr, ptr, ptr, ptr, ptr, ptr, %"class.std::locale" }
%"class.std::locale" = type { ptr }
%union.pthread_mutex_t = type { %struct.__pthread_mutex_s }
%struct.__pthread_mutex_s = type { i32, i32, i32, i32, i32, i16, i16, %struct.__pthread_internal_list }
%struct.__pthread_internal_list = type { ptr, ptr }
%"class.std::__basic_file" = type <{ ptr, i8, [7 x i8] }>
%struct.__mbstate_t = type { i32, %union.anon.6 }
%union.anon.6 = type { i32 }
%"class.std::basic_ios" = type { %"class.std::ios_base", ptr, i8, i8, ptr, ptr, ptr, ptr }
%"class.std::ios_base" = type { ptr, i64, i64, i32, i32, i32, ptr, %"struct.std::ios_base::_Words", [8 x %"struct.std::ios_base::_Words"], i32, ptr, %"class.std::locale" }
%"struct.std::ios_base::_Words" = type { ptr, i64 }
%"class.std::basic_istream" = type { ptr, i64, %"class.std::basic_ios" }

; Function Attrs: inlinehint mustprogress nounwind uwtable
define linkonce_odr dso_local noundef i32 @_ZStanSt12_Ios_IostateS_(i32 noundef %0, i32 noundef %1) #8 comdat {
  %3 = alloca i32, align 4
  %4 = alloca i32, align 4
  store i32 %0, ptr %3, align 4, !tbaa !240
  store i32 %1, ptr %4, align 4, !tbaa !240
  %5 = load i32, ptr %3, align 4, !tbaa !240
  %6 = load i32, ptr %4, align 4, !tbaa !240
  %7 = and i32 %5, %6
  ret i32 %7
}

; Function Attrs: inlinehint mustprogress nounwind uwtable
define linkonce_odr dso_local noundef i32 @_ZStorSt12_Ios_IostateS_(i32 noundef %0, i32 noundef %1) #8 comdat {
  %3 = alloca i32, align 4
  %4 = alloca i32, align 4
  store i32 %0, ptr %3, align 4, !tbaa !240
  store i32 %1, ptr %4, align 4, !tbaa !240
  %5 = load i32, ptr %3, align 4, !tbaa !240
  %6 = load i32, ptr %4, align 4, !tbaa !240
  %7 = or i32 %5, %6
  ret i32 %7
}

; Function Attrs: mustprogress nounwind uwtable
define available_externally noundef i32 @_ZNKSt9basic_iosIcSt11char_traitsIcEE7rdstateEv(ptr noundef nonnull align 8 dereferenceable(264) %0) #4 align 2 {
  %2 = alloca ptr, align 8
  store ptr %0, ptr %2, align 8, !tbaa !120
  %3 = load ptr, ptr %2, align 8
  %4 = getelementptr inbounds nuw %"class.std::ios_base", ptr %3, i32 0, i32 5
  %5 = load i32, ptr %4, align 8, !tbaa !241
  ret i32 %5
}

; Function Attrs: mustprogress uwtable
define available_externally noundef zeroext i1 @_ZNKSt9basic_iosIcSt11char_traitsIcEE4failEv(ptr noundef nonnull align 8 dereferenceable(264) %0) #7 align 2 {
  %2 = alloca ptr, align 8
  store ptr %0, ptr %2, align 8, !tbaa !120
  %3 = load ptr, ptr %2, align 8
  %4 = call noundef i32 @_ZNKSt9basic_iosIcSt11char_traitsIcEE7rdstateEv(ptr noundef nonnull align 8 dereferenceable(264) %3)
  %5 = call noundef i32 @_ZStorSt12_Ios_IostateS_(i32 noundef 1, i32 noundef 4)
  %6 = call noundef i32 @_ZStanSt12_Ios_IostateS_(i32 noundef %4, i32 noundef %5)
  %7 = icmp ne i32 %6, 0
  ret i1 %7
}

; Function Attrs: mustprogress nounwind uwtable
define available_externally noundef ptr @_ZNKSt7__cxx1112basic_stringIcSt11char_traitsIcESaIcEE7_M_dataEv(ptr noundef nonnull align 8 dereferenceable(32) %0) #4 align 2 {
  %2 = alloca ptr, align 8
  store ptr %0, ptr %2, align 8, !tbaa !28
  %3 = load ptr, ptr %2, align 8
  %4 = getelementptr inbounds nuw %"class.std::__cxx11::basic_string", ptr %3, i32 0, i32 0
  %5 = getelementptr inbounds nuw %"struct.std::__cxx11::basic_string<char>::_Alloc_hider", ptr %4, i32 0, i32 0
  %6 = load ptr, ptr %5, align 8, !tbaa !191
  ret ptr %6
}

; Function Attrs: mustprogress nounwind uwtable
define available_externally noundef i64 @_ZNKSi6gcountEv(ptr noundef nonnull align 8 dereferenceable(16) %0) #4 align 2 {
  %2 = alloca ptr, align 8
  store ptr %0, ptr %2, align 8, !tbaa !122
  %3 = load ptr, ptr %2, align 8
  %4 = getelementptr inbounds nuw %"class.std::basic_istream", ptr %3, i32 0, i32 1
  %5 = load i64, ptr %4, align 8, !tbaa !124
  ret i64 %5
}

; Function Attrs: mustprogress uwtable
define available_externally noundef zeroext i1 @_ZNKSt9basic_iosIcSt11char_traitsIcEEntEv(ptr noundef nonnull align 8 dereferenceable(264) %0) #7 align 2 {
  %2 = alloca ptr, align 8
  store ptr %0, ptr %2, align 8, !tbaa !120
  %3 = load ptr, ptr %2, align 8
  %4 = call noundef zeroext i1 @_ZNKSt9basic_iosIcSt11char_traitsIcEE4failEv(ptr noundef nonnull align 8 dereferenceable(264) %3)
  ret i1 %4
}

; Function Attrs: mustprogress nounwind uwtable
define available_externally noundef ptr @_ZNKSt7__cxx1112basic_stringIcSt11char_traitsIcESaIcEE5c_strEv(ptr noundef nonnull align 8 dereferenceable(32) %0) #4 align 2 {
  %2 = alloca ptr, align 8
  store ptr %0, ptr %2, align 8, !tbaa !28
  %3 = load ptr, ptr %2, align 8
  %4 = call noundef ptr @_ZNKSt7__cxx1112basic_stringIcSt11char_traitsIcESaIcEE7_M_dataEv(ptr noundef nonnull align 8 dereferenceable(32) %3)
  ret ptr %4
}

; Function Attrs: mustprogress uwtable
define dso_local noundef zeroext i1 @_ZN5cmsys11SystemTools11FilesDifferERKNSt7__cxx1112basic_stringIcSt11char_traitsIcESaIcEEES8_(ptr noundef nonnull align 8 dereferenceable(32) %0, ptr noundef nonnull align 8 dereferenceable(32) %1) #7 align 2 personality ptr @__gxx_personality_v0 {
  %3 = alloca i1, align 1
  %4 = alloca ptr, align 8
  %5 = alloca ptr, align 8
  %6 = alloca %struct.stat, align 8
  %7 = alloca i32, align 4
  %8 = alloca %struct.stat, align 8
  %9 = alloca i64, align 8
  %10 = alloca %"class.std::basic_ifstream", align 8
  %11 = alloca %"class.std::basic_ifstream", align 8
  %12 = alloca ptr, align 8
  %13 = alloca i32, align 4
  %14 = alloca [4096 x i8], align 16
  %15 = alloca [4096 x i8], align 16
  %16 = alloca i64, align 8
  store ptr %0, ptr %4, align 8, !tbaa !28
  store ptr %1, ptr %5, align 8, !tbaa !28
  call void @llvm.lifetime.start.p0(i64 144, ptr %6) #1
  %17 = load ptr, ptr %4, align 8, !tbaa !28
  %18 = call noundef ptr @_ZNKSt7__cxx1112basic_stringIcSt11char_traitsIcESaIcEE5c_strEv(ptr noundef nonnull align 8 dereferenceable(32) %17) #1
  %19 = call i32 @stat(ptr noundef %18, ptr noundef %6) #1
  %20 = icmp ne i32 %19, 0
  br i1 %20, label %21, label %22

21:                                               ; preds = %2
  store i1 true, ptr %3, align 1
  store i32 1, ptr %7, align 4
  br label %124

22:                                               ; preds = %2
  call void @llvm.lifetime.start.p0(i64 144, ptr %8) #1
  %23 = load ptr, ptr %5, align 8, !tbaa !28
  %24 = call noundef ptr @_ZNKSt7__cxx1112basic_stringIcSt11char_traitsIcESaIcEE5c_strEv(ptr noundef nonnull align 8 dereferenceable(32) %23) #1
  %25 = call i32 @stat(ptr noundef %24, ptr noundef %8) #1
  %26 = icmp ne i32 %25, 0
  br i1 %26, label %27, label %28

27:                                               ; preds = %22
  store i1 true, ptr %3, align 1
  store i32 1, ptr %7, align 4
  br label %123

28:                                               ; preds = %22
  %29 = getelementptr inbounds nuw %struct.stat, ptr %6, i32 0, i32 8
  %30 = load i64, ptr %29, align 8, !tbaa !70
  %31 = getelementptr inbounds nuw %struct.stat, ptr %8, i32 0, i32 8
  %32 = load i64, ptr %31, align 8, !tbaa !70
  %33 = icmp ne i64 %30, %32
  br i1 %33, label %34, label %35

34:                                               ; preds = %28
  store i1 true, ptr %3, align 1
  store i32 1, ptr %7, align 4
  br label %123

35:                                               ; preds = %28
  %36 = getelementptr inbounds nuw %struct.stat, ptr %6, i32 0, i32 8
  %37 = load i64, ptr %36, align 8, !tbaa !70
  %38 = icmp eq i64 %37, 0
  br i1 %38, label %39, label %40

39:                                               ; preds = %35
  store i1 false, ptr %3, align 1
  store i32 1, ptr %7, align 4
  br label %123

40:                                               ; preds = %35
  call void @llvm.lifetime.start.p0(i64 8, ptr %9) #1
  %41 = getelementptr inbounds nuw %struct.stat, ptr %6, i32 0, i32 8
  %42 = load i64, ptr %41, align 8, !tbaa !70
  store i64 %42, ptr %9, align 8, !tbaa !15
  call void @llvm.lifetime.start.p0(i64 520, ptr %10) #1
  %43 = load ptr, ptr %4, align 8, !tbaa !28
  %44 = call noundef ptr @_ZNKSt7__cxx1112basic_stringIcSt11char_traitsIcESaIcEE5c_strEv(ptr noundef nonnull align 8 dereferenceable(32) %43) #1
  call void @_ZNSt14basic_ifstreamIcSt11char_traitsIcEEC1EPKcSt13_Ios_Openmode(ptr noundef nonnull align 8 dereferenceable(256) %10, ptr noundef %44, i32 noundef 8)
  call void @llvm.lifetime.start.p0(i64 520, ptr %11) #1
  %45 = load ptr, ptr %5, align 8, !tbaa !28
  %46 = call noundef ptr @_ZNKSt7__cxx1112basic_stringIcSt11char_traitsIcESaIcEE5c_strEv(ptr noundef nonnull align 8 dereferenceable(32) %45) #1
  invoke void @_ZNSt14basic_ifstreamIcSt11char_traitsIcEEC1EPKcSt13_Ios_Openmode(ptr noundef nonnull align 8 dereferenceable(256) %11, ptr noundef %46, i32 noundef 8)
          to label %47 unwind label %62

47:                                               ; preds = %40
  %48 = load ptr, ptr %10, align 8, !tbaa !103
  %49 = getelementptr i8, ptr %48, i64 -24
  %50 = load i64, ptr %49, align 8
  %51 = getelementptr inbounds i8, ptr %10, i64 %50
  %52 = invoke noundef zeroext i1 @_ZNKSt9basic_iosIcSt11char_traitsIcEEntEv(ptr noundef nonnull align 8 dereferenceable(264) %51)
          to label %53 unwind label %66

53:                                               ; preds = %47
  br i1 %52, label %61, label %54

54:                                               ; preds = %53
  %55 = load ptr, ptr %11, align 8, !tbaa !103
  %56 = getelementptr i8, ptr %55, i64 -24
  %57 = load i64, ptr %56, align 8
  %58 = getelementptr inbounds i8, ptr %11, i64 %57
  %59 = invoke noundef zeroext i1 @_ZNKSt9basic_iosIcSt11char_traitsIcEEntEv(ptr noundef nonnull align 8 dereferenceable(264) %58)
          to label %60 unwind label %66

60:                                               ; preds = %54
  br i1 %59, label %61, label %70

61:                                               ; preds = %60, %53
  store i1 true, ptr %3, align 1
  store i32 1, ptr %7, align 4
  br label %120

62:                                               ; preds = %40
  %63 = landingpad { ptr, i32 }
          cleanup
  %64 = extractvalue { ptr, i32 } %63, 0
  store ptr %64, ptr %12, align 8
  %65 = extractvalue { ptr, i32 } %63, 1
  store i32 %65, ptr %13, align 4
  br label %122

66:                                               ; preds = %54, %47
  %67 = landingpad { ptr, i32 }
          cleanup
  %68 = extractvalue { ptr, i32 } %67, 0
  store ptr %68, ptr %12, align 8
  %69 = extractvalue { ptr, i32 } %67, 1
  store i32 %69, ptr %13, align 4
  br label %121

70:                                               ; preds = %60
  call void @llvm.lifetime.start.p0(i64 4096, ptr %14) #1
  call void @llvm.lifetime.start.p0(i64 4096, ptr %15) #1
  br label %71

71:                                               ; preds = %117, %70
  %72 = load i64, ptr %9, align 8, !tbaa !15
  %73 = icmp sgt i64 %72, 0
  br i1 %73, label %74, label %118

74:                                               ; preds = %71
  call void @llvm.lifetime.start.p0(i64 8, ptr %16) #1
  %75 = load i64, ptr %9, align 8, !tbaa !15
  %76 = icmp sgt i64 %75, 4096
  br i1 %76, label %77, label %78

77:                                               ; preds = %74
  br label %80

78:                                               ; preds = %74
  %79 = load i64, ptr %9, align 8, !tbaa !15
  br label %80

80:                                               ; preds = %78, %77
  %81 = phi i64 [ 4096, %77 ], [ %79, %78 ]
  store i64 %81, ptr %16, align 8, !tbaa !15
  %82 = getelementptr inbounds [4096 x i8], ptr %14, i64 0, i64 0
  %83 = load i64, ptr %16, align 8, !tbaa !15
  %84 = invoke noundef nonnull align 8 dereferenceable(16) ptr @_ZNSi4readEPcl(ptr noundef nonnull align 8 dereferenceable(16) %10, ptr noundef %82, i64 noundef %83)
          to label %85 unwind label %100

85:                                               ; preds = %80
  %86 = getelementptr inbounds [4096 x i8], ptr %15, i64 0, i64 0
  %87 = load i64, ptr %16, align 8, !tbaa !15
  %88 = invoke noundef nonnull align 8 dereferenceable(16) ptr @_ZNSi4readEPcl(ptr noundef nonnull align 8 dereferenceable(16) %11, ptr noundef %86, i64 noundef %87)
          to label %89 unwind label %100

89:                                               ; preds = %85
  %90 = invoke noundef i64 @_ZNKSi6gcountEv(ptr noundef nonnull align 8 dereferenceable(16) %10)
          to label %91 unwind label %100

91:                                               ; preds = %89
  %92 = load i64, ptr %16, align 8, !tbaa !15
  %93 = icmp ne i64 %90, %92
  br i1 %93, label %99, label %94

94:                                               ; preds = %91
  %95 = invoke noundef i64 @_ZNKSi6gcountEv(ptr noundef nonnull align 8 dereferenceable(16) %11)
          to label %96 unwind label %100

96:                                               ; preds = %94
  %97 = load i64, ptr %16, align 8, !tbaa !15
  %98 = icmp ne i64 %95, %97
  br i1 %98, label %99, label %104

99:                                               ; preds = %96, %91
  store i1 true, ptr %3, align 1
  store i32 1, ptr %7, align 4
  br label %115

100:                                              ; preds = %94, %89, %85, %80
  %101 = landingpad { ptr, i32 }
          cleanup
  %102 = extractvalue { ptr, i32 } %101, 0
  store ptr %102, ptr %12, align 8
  %103 = extractvalue { ptr, i32 } %101, 1
  store i32 %103, ptr %13, align 4
  call void @llvm.lifetime.end.p0(i64 8, ptr %16) #1
  call void @llvm.lifetime.end.p0(i64 4096, ptr %15) #1
  call void @llvm.lifetime.end.p0(i64 4096, ptr %14) #1
  br label %121

104:                                              ; preds = %96
  %105 = getelementptr inbounds [4096 x i8], ptr %14, i64 0, i64 0
  %106 = getelementptr inbounds [4096 x i8], ptr %15, i64 0, i64 0
  %107 = load i64, ptr %16, align 8, !tbaa !15
  %108 = call i32 @memcmp(ptr noundef %105, ptr noundef %106, i64 noundef %107) #24
  %109 = icmp ne i32 %108, 0
  br i1 %109, label %110, label %111

110:                                              ; preds = %104
  store i1 true, ptr %3, align 1
  store i32 1, ptr %7, align 4
  br label %115

111:                                              ; preds = %104
  %112 = load i64, ptr %16, align 8, !tbaa !15
  %113 = load i64, ptr %9, align 8, !tbaa !15
  %114 = sub nsw i64 %113, %112
  store i64 %114, ptr %9, align 8, !tbaa !15
  store i32 0, ptr %7, align 4
  br label %115

115:                                              ; preds = %111, %110, %99
  call void @llvm.lifetime.end.p0(i64 8, ptr %16) #1
  %116 = load i32, ptr %7, align 4
  switch i32 %116, label %119 [
    i32 0, label %117
  ]

117:                                              ; preds = %115
  br label %71, !llvm.loop !105

118:                                              ; preds = %71
  store i1 false, ptr %3, align 1
  store i32 1, ptr %7, align 4
  br label %119

119:                                              ; preds = %118, %115
  call void @llvm.lifetime.end.p0(i64 4096, ptr %15) #1
  call void @llvm.lifetime.end.p0(i64 4096, ptr %14) #1
  br label %120

120:                                              ; preds = %119, %61
  call void @_ZNSt14basic_ifstreamIcSt11char_traitsIcEED1Ev(ptr noundef nonnull align 8 dereferenceable(256) %11) #1
  call void @llvm.lifetime.end.p0(i64 520, ptr %11) #1
  call void @_ZNSt14basic_ifstreamIcSt11char_traitsIcEED1Ev(ptr noundef nonnull align 8 dereferenceable(256) %10) #1
  call void @llvm.lifetime.end.p0(i64 520, ptr %10) #1
  call void @llvm.lifetime.end.p0(i64 8, ptr %9) #1
  br label %123

121:                                              ; preds = %100, %66
  call void @_ZNSt14basic_ifstreamIcSt11char_traitsIcEED1Ev(ptr noundef nonnull align 8 dereferenceable(256) %11) #1
  br label %122

122:                                              ; preds = %121, %62
  call void @llvm.lifetime.end.p0(i64 520, ptr %11) #1
  call void @_ZNSt14basic_ifstreamIcSt11char_traitsIcEED1Ev(ptr noundef nonnull align 8 dereferenceable(256) %10) #1
  call void @llvm.lifetime.end.p0(i64 520, ptr %10) #1
  call void @llvm.lifetime.end.p0(i64 8, ptr %9) #1
  call void @llvm.lifetime.end.p0(i64 144, ptr %8) #1
  call void @llvm.lifetime.end.p0(i64 144, ptr %6) #1
  br label %126

123:                                              ; preds = %120, %39, %34, %27
  call void @llvm.lifetime.end.p0(i64 144, ptr %8) #1
  br label %124

124:                                              ; preds = %123, %21
  call void @llvm.lifetime.end.p0(i64 144, ptr %6) #1
  %125 = load i1, ptr %3, align 1
  ret i1 %125

126:                                              ; preds = %122
  %127 = load ptr, ptr %12, align 8
  %128 = load i32, ptr %13, align 4
  %129 = insertvalue { ptr, i32 } poison, ptr %127, 0
  %130 = insertvalue { ptr, i32 } %129, i32 %128, 1
  resume { ptr, i32 } %130
}