; Function Attrs: mustprogress uwtable
define dso_local noundef zeroext i1 @_ZN5cmsys11SystemTools11FilesDifferERKNSt7__cxx1112basic_stringIcSt11char_traitsIcESaIcEEES8_(ptr noundef nonnull readonly align 8 captures(none) dereferenceable(32) %0, ptr noundef nonnull readonly align 8 captures(none) dereferenceable(32) %1) local_unnamed_addr #6 align 2 personality ptr @__gxx_personality_v0 {
  %3 = alloca %struct.stat, align 8
  %4 = alloca %struct.stat, align 8
  %5 = alloca %"class.std::basic_ifstream", align 8
  %6 = alloca %"class.std::basic_ifstream", align 8
  %7 = alloca [4096 x i8], align 16
  %8 = alloca [4096 x i8], align 16
  call void @llvm.lifetime.start.p0(i64 144, ptr nonnull %3) #39
  %9 = load ptr, ptr %0, align 8, !tbaa !21
  %10 = call i32 @stat(ptr noundef %9, ptr noundef nonnull %3) #39
  %.not = icmp eq i32 %10, 0
  br i1 %.not, label %11, label %62

11:                                               ; preds = %2
  call void @llvm.lifetime.start.p0(i64 144, ptr nonnull %4) #39
  %12 = load ptr, ptr %1, align 8, !tbaa !21
  %13 = call i32 @stat(ptr noundef %12, ptr noundef nonnull %4) #39
  %.not26 = icmp eq i32 %13, 0
  br i1 %.not26, label %14, label %61

14:                                               ; preds = %11
  %15 = getelementptr inbounds nuw i8, ptr %3, i64 48
  %16 = load i64, ptr %15, align 8, !tbaa !52
  %17 = getelementptr inbounds nuw i8, ptr %4, i64 48
  %18 = load i64, ptr %17, align 8, !tbaa !52
  %.not27 = icmp eq i64 %16, %18
  br i1 %.not27, label %19, label %61

19:                                               ; preds = %14
  %20 = icmp eq i64 %16, 0
  br i1 %20, label %61, label %21

21:                                               ; preds = %19
  call void @llvm.lifetime.start.p0(i64 520, ptr nonnull %5) #39
  %22 = load ptr, ptr %0, align 8, !tbaa !21
  call void @_ZNSt14basic_ifstreamIcSt11char_traitsIcEEC1EPKcSt13_Ios_Openmode(ptr noundef nonnull align 8 dereferenceable(256) %5, ptr noundef %22, i32 noundef 8)
  call void @llvm.lifetime.start.p0(i64 520, ptr nonnull %6) #39
  %23 = load ptr, ptr %1, align 8, !tbaa !21
  invoke void @_ZNSt14basic_ifstreamIcSt11char_traitsIcEEC1EPKcSt13_Ios_Openmode(ptr noundef nonnull align 8 dereferenceable(256) %6, ptr noundef %23, i32 noundef 8)
          to label %24 unwind label %40

24:                                               ; preds = %21
  %25 = load ptr, ptr %5, align 8, !tbaa !99
  %26 = getelementptr i8, ptr %25, i64 -24
  %27 = load i64, ptr %26, align 8
  %28 = getelementptr inbounds i8, ptr %5, i64 %27
  %29 = getelementptr inbounds nuw i8, ptr %28, i64 32
  %30 = load i32, ptr %29, align 8, !tbaa !101
  %31 = and i32 %30, 5
  %.not37 = icmp eq i32 %31, 0
  br i1 %.not37, label %32, label %59

32:                                               ; preds = %24
  %33 = load ptr, ptr %6, align 8, !tbaa !99
  %34 = getelementptr i8, ptr %33, i64 -24
  %35 = load i64, ptr %34, align 8
  %36 = getelementptr inbounds i8, ptr %6, i64 %35
  %37 = getelementptr inbounds nuw i8, ptr %36, i64 32
  %38 = load i32, ptr %37, align 8, !tbaa !101
  %39 = and i32 %38, 5
  %.not38 = icmp eq i32 %39, 0
  br i1 %.not38, label %42, label %59

40:                                               ; preds = %21
  %41 = landingpad { ptr, i32 }
          cleanup
  br label %60

42:                                               ; preds = %32
  call void @llvm.lifetime.start.p0(i64 4096, ptr nonnull %7) #39
  call void @llvm.lifetime.start.p0(i64 4096, ptr nonnull %8) #39
  %43 = getelementptr inbounds nuw i8, ptr %5, i64 8
  %44 = getelementptr inbounds nuw i8, ptr %6, i64 8
  br label %45

45:                                               ; preds = %57, %42
  %.021 = phi i64 [ %16, %42 ], [ %58, %57 ]
  %46 = icmp sgt i64 %.021, 0
  br i1 %46, label %47, label %.thread

47:                                               ; preds = %45
  %48 = call i64 @llvm.umin.i64(i64 %.021, i64 4096)
  %49 = invoke noundef nonnull align 8 dereferenceable(16) ptr @_ZNSi4readEPcl(ptr noundef nonnull align 8 dereferenceable(16) %5, ptr noundef nonnull %7, i64 noundef %48)
          to label %50 unwind label %55

50:                                               ; preds = %47
  %51 = invoke noundef nonnull align 8 dereferenceable(16) ptr @_ZNSi4readEPcl(ptr noundef nonnull align 8 dereferenceable(16) %6, ptr noundef nonnull %8, i64 noundef %48)
          to label %52 unwind label %55

52:                                               ; preds = %50
  %53 = load i64, ptr %43, align 8, !tbaa !110
  %.not30 = icmp eq i64 %53, %48
  %54 = load i64, ptr %44, align 8
  %.not31 = icmp eq i64 %54, %48
  %or.cond = select i1 %.not30, i1 %.not31, i1 false
  br i1 %or.cond, label %57, label %.thread

55:                                               ; preds = %50, %47
  %56 = landingpad { ptr, i32 }
          cleanup
  call void @llvm.lifetime.end.p0(i64 4096, ptr nonnull %8) #39
  call void @llvm.lifetime.end.p0(i64 4096, ptr nonnull %7) #39
  call void @_ZNSt14basic_ifstreamIcSt11char_traitsIcEED1Ev(ptr noundef nonnull align 8 dereferenceable(256) %6) #39
  br label %60

57:                                               ; preds = %52
  %bcmp = call i32 @bcmp(ptr nonnull %7, ptr nonnull %8, i64 %48)
  %.not32 = icmp eq i32 %bcmp, 0
  %58 = sub nsw i64 %.021, %48
  br i1 %.not32, label %45, label %.thread, !llvm.loop !112

.thread:                                          ; preds = %52, %45, %57
  call void @llvm.lifetime.end.p0(i64 4096, ptr nonnull %8) #39
  call void @llvm.lifetime.end.p0(i64 4096, ptr nonnull %7) #39
  br label %59

59:                                               ; preds = %24, %32, %.thread
  %.2 = phi i1 [ %46, %.thread ], [ true, %32 ], [ true, %24 ]
  call void @_ZNSt14basic_ifstreamIcSt11char_traitsIcEED1Ev(ptr noundef nonnull align 8 dereferenceable(256) %6) #39
  call void @llvm.lifetime.end.p0(i64 520, ptr nonnull %6) #39
  call void @_ZNSt14basic_ifstreamIcSt11char_traitsIcEED1Ev(ptr noundef nonnull align 8 dereferenceable(256) %5) #39
  call void @llvm.lifetime.end.p0(i64 520, ptr nonnull %5) #39
  br label %61

60:                                               ; preds = %55, %40
  %.pn.pn = phi { ptr, i32 } [ %56, %55 ], [ %41, %40 ]
  call void @llvm.lifetime.end.p0(i64 520, ptr nonnull %6) #39
  call void @_ZNSt14basic_ifstreamIcSt11char_traitsIcEED1Ev(ptr noundef nonnull align 8 dereferenceable(256) %5) #39
  call void @llvm.lifetime.end.p0(i64 520, ptr nonnull %5) #39
  call void @llvm.lifetime.end.p0(i64 144, ptr nonnull %4) #39
  call void @llvm.lifetime.end.p0(i64 144, ptr nonnull %3) #39
  resume { ptr, i32 } %.pn.pn

61:                                               ; preds = %19, %14, %11, %59
  %.1 = phi i1 [ %.2, %59 ], [ true, %11 ], [ true, %14 ], [ false, %19 ]
  call void @llvm.lifetime.end.p0(i64 144, ptr nonnull %4) #39
  br label %62

62:                                               ; preds = %2, %61
  %.0 = phi i1 [ %.1, %61 ], [ true, %2 ]
  call void @llvm.lifetime.end.p0(i64 144, ptr nonnull %3) #39
  ret i1 %.0
}